target datalayout = "e-m:e-p270:32:32-p271:32:32-p272:64:64-i64:64-i128:128-f80:128-n8:16:32:64-S128"
target triple = "x86_64-pc-linux-gnu"

%struct.hwloc_topology = type { i32, i32, i32, ptr, ptr, i64, [20 x i32], [20 x i32], i64, i64, i32, ptr, i64, ptr, i64, [6 x %struct.hwloc_special_level_s], ptr, ptr, %struct.hwloc_binding_hooks, %struct.hwloc_topology_support, %struct.hwloc_infos_s, ptr, ptr, i32, ptr, ptr, i32, i32, ptr, i32, i32, ptr, i32, i32, i32, [5 x float], i32, ptr, ptr, i32, i32, ptr, i32, %struct.hwloc_numanode_attr_s, i32, i32, ptr, i64, i32, ptr, ptr, ptr }
%struct.hwloc_special_level_s = type { i32, ptr, ptr, ptr }
%struct.hwloc_binding_hooks = type { ptr, ptr, ptr, ptr, ptr, ptr, ptr, ptr, ptr, ptr, ptr, ptr, ptr, ptr, ptr, ptr, ptr, ptr, ptr, ptr, ptr, ptr, ptr, ptr }
%struct.hwloc_topology_support = type { ptr, ptr, ptr, ptr }
%struct.hwloc_infos_s = type { ptr, i32, i32 }
%struct.hwloc_numanode_attr_s = type { i64, i32, ptr }

; Function Attrs: nounwind uwtable
define internal i32 @hwloc_linux_get_proc_last_cpu_location(ptr noundef %0, i32 noundef %1, ptr noundef %2, i32 noundef %3) #0 {
  %5 = alloca i32, align 4
  %6 = alloca ptr, align 8
  %7 = alloca i32, align 4
  %8 = alloca ptr, align 8
  %9 = alloca i32, align 4
  store ptr %0, ptr %6, align 8, !tbaa !19
  store i32 %1, ptr %7, align 4, !tbaa !10
  store ptr %2, ptr %8, align 8, !tbaa !8
  store i32 %3, ptr %9, align 4, !tbaa !10
  %10 = load i32, ptr %7, align 4, !tbaa !10
  %11 = icmp eq i32 %10, 0
  br i1 %11, label %12, label %16

12:                                               ; preds = %4
  %13 = load ptr, ptr %6, align 8, !tbaa !19
  %14 = getelementptr inbounds nuw %struct.hwloc_topology, ptr %13, i32 0, i32 10
  %15 = load i32, ptr %14, align 8, !tbaa !86
  store i32 %15, ptr %7, align 4, !tbaa !10
  br label %16

16:                                               ; preds = %12, %4
  %17 = load i32, ptr %9, align 4, !tbaa !10
  %18 = and i32 %17, 2
  %19 = icmp ne i32 %18, 0
  br i1 %19, label %20, label %25

20:                                               ; preds = %16
  %21 = load ptr, ptr %6, align 8, !tbaa !19
  %22 = load i32, ptr %7, align 4, !tbaa !10
  %23 = load ptr, ptr %8, align 8, !tbaa !8
  %24 = call i32 @hwloc_linux_get_tid_last_cpu_location(ptr noundef %21, i32 noundef %22, ptr noundef %23)
  store i32 %24, ptr %5, align 4
  br label %31

25:                                               ; preds = %16
  %26 = load ptr, ptr %6, align 8, !tbaa !19
  %27 = load i32, ptr %7, align 4, !tbaa !10
  %28 = load ptr, ptr %8, align 8, !tbaa !8
  %29 = load i32, ptr %9, align 4, !tbaa !10
  %30 = call i32 @hwloc_linux_get_pid_last_cpu_location(ptr noundef %26, i32 noundef %27, ptr noundef %28, i32 noundef %29)
  store i32 %30, ptr %5, align 4
  br label %31

31:                                               ; preds = %25, %20
  %32 = load i32, ptr %5, align 4
  ret i32 %32
}