; Function Attrs: nounwind uwtable
define internal range(i32 -1, 1) i32 @hwloc_linux_get_proc_last_cpu_location(ptr noundef readonly captures(none) %0, i32 noundef %1, ptr noundef %2, i32 noundef %3) #0 {
  %5 = icmp eq i32 %1, 0
  br i1 %5, label %6, label %9

6:                                                ; preds = %4
  %7 = getelementptr inbounds nuw i8, ptr %0, i64 216
  %8 = load i32, ptr %7, align 8, !tbaa !77
  br label %9

9:                                                ; preds = %6, %4
  %.010 = phi i32 [ %8, %6 ], [ %1, %4 ]
  %10 = and i32 %3, 2
  %.not = icmp eq i32 %10, 0
  br i1 %.not, label %13, label %11

11:                                               ; preds = %9
  %12 = tail call i32 @hwloc_linux_get_tid_last_cpu_location(ptr poison, i32 noundef %.010, ptr noundef %2)
  br label %15

13:                                               ; preds = %9
  %14 = tail call fastcc i32 @hwloc_linux_get_pid_last_cpu_location(ptr noundef %0, i32 noundef %.010, ptr noundef %2)
  br label %15

15:                                               ; preds = %13, %11
  %.0 = phi i32 [ %12, %11 ], [ %14, %13 ]
  ret i32 %.0
}